target datalayout = "e-m:e-p270:32:32-p271:32:32-p272:64:64-i64:64-i128:128-f80:128-n8:16:32:64-S128"
target triple = "x86_64-pc-linux-gnu"

%"class.std::__shared_count" = type { ptr }
%"class.dropbox::oxygen::nn.42" = type { %"class.std::shared_ptr.43" }
%"class.std::shared_ptr.43" = type { %"class.std::__shared_ptr.44" }
%"class.std::__shared_ptr.44" = type { ptr, %"class.std::__shared_count" }
%"class.osgeo::proj::util::PropertyMap" = type { %"class.std::unique_ptr.110" }
%"class.std::unique_ptr.110" = type { %"struct.std::__uniq_ptr_data.111" }
%"struct.std::__uniq_ptr_data.111" = type { %"class.std::__uniq_ptr_impl.112" }
%"class.std::__uniq_ptr_impl.112" = type { %"class.std::tuple.113" }
%"class.std::tuple.113" = type { %"struct.std::_Tuple_impl.114" }
%"struct.std::_Tuple_impl.114" = type { %"struct.std::_Head_base.117" }
%"struct.std::_Head_base.117" = type { ptr }
%"struct.std::_Vector_base.135" = type { %"struct.std::_Vector_base<dropbox::oxygen::nn<std::shared_ptr<osgeo::proj::operation::OperationParameter>>, std::allocator<dropbox::oxygen::nn<std::shared_ptr<osgeo::proj::operation::OperationParameter>>>>::_Vector_impl" }
%"struct.std::_Vector_base<dropbox::oxygen::nn<std::shared_ptr<osgeo::proj::operation::OperationParameter>>, std::allocator<dropbox::oxygen::nn<std::shared_ptr<osgeo::proj::operation::OperationParameter>>>>::_Vector_impl" = type { %"struct.std::_Vector_base<dropbox::oxygen::nn<std::shared_ptr<osgeo::proj::operation::OperationParameter>>, std::allocator<dropbox::oxygen::nn<std::shared_ptr<osgeo::proj::operation::OperationParameter>>>>::_Vector_impl_data" }
%"struct.std::_Vector_base<dropbox::oxygen::nn<std::shared_ptr<osgeo::proj::operation::OperationParameter>>, std::allocator<dropbox::oxygen::nn<std::shared_ptr<osgeo::proj::operation::OperationParameter>>>>::_Vector_impl_data" = type { ptr, ptr, ptr }
%"struct.std::_Vector_base.140" = type { %"struct.std::_Vector_base<dropbox::oxygen::nn<std::shared_ptr<osgeo::proj::operation::ParameterValue>>, std::allocator<dropbox::oxygen::nn<std::shared_ptr<osgeo::proj::operation::ParameterValue>>>>::_Vector_impl" }
%"struct.std::_Vector_base<dropbox::oxygen::nn<std::shared_ptr<osgeo::proj::operation::ParameterValue>>, std::allocator<dropbox::oxygen::nn<std::shared_ptr<osgeo::proj::operation::ParameterValue>>>>::_Vector_impl" = type { %"struct.std::_Vector_base<dropbox::oxygen::nn<std::shared_ptr<osgeo::proj::operation::ParameterValue>>, std::allocator<dropbox::oxygen::nn<std::shared_ptr<osgeo::proj::operation::ParameterValue>>>>::_Vector_impl_data" }
%"struct.std::_Vector_base<dropbox::oxygen::nn<std::shared_ptr<osgeo::proj::operation::ParameterValue>>, std::allocator<dropbox::oxygen::nn<std::shared_ptr<osgeo::proj::operation::ParameterValue>>>>::_Vector_impl_data" = type { ptr, ptr, ptr }
%"class.std::vector.134" = type { %"struct.std::_Vector_base.135" }
%"struct.osgeo::proj::operation::VectorOfValues" = type { %"class.std::vector.139" }
%"class.std::vector.139" = type { %"struct.std::_Vector_base.140" }
%"struct.osgeo::proj::operation::VectorOfParameters" = type { %"class.std::vector.134" }

; Function Attrs: mustprogress nounwind uwtable
define linkonce_odr hidden void @_ZNSt15__new_allocatorIN7dropbox6oxygen2nnISt10shared_ptrIN5osgeo4proj9operation14ParameterValueEEEEEC2Ev(ptr noundef nonnull align 1 dereferenceable(1) %0) unnamed_addr #2 comdat align 2 {
  %2 = alloca ptr, align 8
  store ptr %0, ptr %2, align 8, !tbaa !374
  ret void
}

; Function Attrs: mustprogress nounwind uwtable
define linkonce_odr hidden void @_ZNSt15__new_allocatorIN7dropbox6oxygen2nnISt10shared_ptrIN5osgeo4proj9operation18OperationParameterEEEEEC2Ev(ptr noundef nonnull align 1 dereferenceable(1) %0) unnamed_addr #2 comdat align 2 {
  %2 = alloca ptr, align 8
  store ptr %0, ptr %2, align 8, !tbaa !333
  ret void
}

; Function Attrs: mustprogress nounwind uwtable
define linkonce_odr hidden void @_ZNSt12_Vector_baseIN7dropbox6oxygen2nnISt10shared_ptrIN5osgeo4proj9operation14ParameterValueEEEESaIS9_EE17_Vector_impl_dataC2Ev(ptr noundef nonnull align 8 dereferenceable(24) %0) unnamed_addr #2 comdat align 2 {
  %2 = alloca ptr, align 8
  store ptr %0, ptr %2, align 8, !tbaa !371
  %3 = load ptr, ptr %2, align 8
  %4 = getelementptr inbounds nuw %"struct.std::_Vector_base<dropbox::oxygen::nn<std::shared_ptr<osgeo::proj::operation::ParameterValue>>, std::allocator<dropbox::oxygen::nn<std::shared_ptr<osgeo::proj::operation::ParameterValue>>>>::_Vector_impl_data", ptr %3, i32 0, i32 0
  store ptr null, ptr %4, align 8, !tbaa !86
  %5 = getelementptr inbounds nuw %"struct.std::_Vector_base<dropbox::oxygen::nn<std::shared_ptr<osgeo::proj::operation::ParameterValue>>, std::allocator<dropbox::oxygen::nn<std::shared_ptr<osgeo::proj::operation::ParameterValue>>>>::_Vector_impl_data", ptr %3, i32 0, i32 1
  store ptr null, ptr %5, align 8, !tbaa !84
  %6 = getelementptr inbounds nuw %"struct.std::_Vector_base<dropbox::oxygen::nn<std::shared_ptr<osgeo::proj::operation::ParameterValue>>, std::allocator<dropbox::oxygen::nn<std::shared_ptr<osgeo::proj::operation::ParameterValue>>>>::_Vector_impl_data", ptr %3, i32 0, i32 2
  store ptr null, ptr %6, align 8, !tbaa !373
  ret void
}

; Function Attrs: mustprogress nounwind uwtable
define linkonce_odr hidden void @_ZNSaIN7dropbox6oxygen2nnISt10shared_ptrIN5osgeo4proj9operation14ParameterValueEEEEEC2Ev(ptr noundef nonnull align 1 dereferenceable(1) %0) unnamed_addr #2 comdat align 2 {
  %2 = alloca ptr, align 8
  store ptr %0, ptr %2, align 8, !tbaa !116
  %3 = load ptr, ptr %2, align 8
  call void @_ZNSt15__new_allocatorIN7dropbox6oxygen2nnISt10shared_ptrIN5osgeo4proj9operation14ParameterValueEEEEEC2Ev(ptr noundef nonnull align 1 dereferenceable(1) %3) #24
  ret void
}

; Function Attrs: mustprogress nounwind uwtable
define linkonce_odr hidden void @_ZNSt12_Vector_baseIN7dropbox6oxygen2nnISt10shared_ptrIN5osgeo4proj9operation18OperationParameterEEEESaIS9_EE17_Vector_impl_dataC2Ev(ptr noundef nonnull align 8 dereferenceable(24) %0) unnamed_addr #2 comdat align 2 {
  %2 = alloca ptr, align 8
  store ptr %0, ptr %2, align 8, !tbaa !363
  %3 = load ptr, ptr %2, align 8
  %4 = getelementptr inbounds nuw %"struct.std::_Vector_base<dropbox::oxygen::nn<std::shared_ptr<osgeo::proj::operation::OperationParameter>>, std::allocator<dropbox::oxygen::nn<std::shared_ptr<osgeo::proj::operation::OperationParameter>>>>::_Vector_impl_data", ptr %3, i32 0, i32 0
  store ptr null, ptr %4, align 8, !tbaa !83
  %5 = getelementptr inbounds nuw %"struct.std::_Vector_base<dropbox::oxygen::nn<std::shared_ptr<osgeo::proj::operation::OperationParameter>>, std::allocator<dropbox::oxygen::nn<std::shared_ptr<osgeo::proj::operation::OperationParameter>>>>::_Vector_impl_data", ptr %3, i32 0, i32 1
  store ptr null, ptr %5, align 8, !tbaa !80
  %6 = getelementptr inbounds nuw %"struct.std::_Vector_base<dropbox::oxygen::nn<std::shared_ptr<osgeo::proj::operation::OperationParameter>>, std::allocator<dropbox::oxygen::nn<std::shared_ptr<osgeo::proj::operation::OperationParameter>>>>::_Vector_impl_data", ptr %3, i32 0, i32 2
  store ptr null, ptr %6, align 8, !tbaa !330
  ret void
}

; Function Attrs: mustprogress nounwind uwtable
define linkonce_odr hidden void @_ZNSaIN7dropbox6oxygen2nnISt10shared_ptrIN5osgeo4proj9operation18OperationParameterEEEEEC2Ev(ptr noundef nonnull align 1 dereferenceable(1) %0) unnamed_addr #2 comdat align 2 {
  %2 = alloca ptr, align 8
  store ptr %0, ptr %2, align 8, !tbaa !331
  %3 = load ptr, ptr %2, align 8
  call void @_ZNSt15__new_allocatorIN7dropbox6oxygen2nnISt10shared_ptrIN5osgeo4proj9operation18OperationParameterEEEEEC2Ev(ptr noundef nonnull align 1 dereferenceable(1) %3) #24
  ret void
}

; Function Attrs: mustprogress nounwind uwtable
define linkonce_odr hidden void @_ZNSt12_Vector_baseIN7dropbox6oxygen2nnISt10shared_ptrIN5osgeo4proj9operation14ParameterValueEEEESaIS9_EE12_Vector_implC2Ev(ptr noundef nonnull align 8 dereferenceable(24) %0) unnamed_addr #2 comdat align 2 {
  %2 = alloca ptr, align 8
  store ptr %0, ptr %2, align 8, !tbaa !369
  %3 = load ptr, ptr %2, align 8
  call void @_ZNSaIN7dropbox6oxygen2nnISt10shared_ptrIN5osgeo4proj9operation14ParameterValueEEEEEC2Ev(ptr noundef nonnull align 1 dereferenceable(1) %3) #24
  call void @_ZNSt12_Vector_baseIN7dropbox6oxygen2nnISt10shared_ptrIN5osgeo4proj9operation14ParameterValueEEEESaIS9_EE17_Vector_impl_dataC2Ev(ptr noundef nonnull align 8 dereferenceable(24) %3) #24
  ret void
}

; Function Attrs: mustprogress nounwind uwtable
define linkonce_odr hidden void @_ZNSt12_Vector_baseIN7dropbox6oxygen2nnISt10shared_ptrIN5osgeo4proj9operation18OperationParameterEEEESaIS9_EE12_Vector_implC2Ev(ptr noundef nonnull align 8 dereferenceable(24) %0) unnamed_addr #2 comdat align 2 {
  %2 = alloca ptr, align 8
  store ptr %0, ptr %2, align 8, !tbaa !361
  %3 = load ptr, ptr %2, align 8
  call void @_ZNSaIN7dropbox6oxygen2nnISt10shared_ptrIN5osgeo4proj9operation18OperationParameterEEEEEC2Ev(ptr noundef nonnull align 1 dereferenceable(1) %3) #24
  call void @_ZNSt12_Vector_baseIN7dropbox6oxygen2nnISt10shared_ptrIN5osgeo4proj9operation18OperationParameterEEEESaIS9_EE17_Vector_impl_dataC2Ev(ptr noundef nonnull align 8 dereferenceable(24) %3) #24
  ret void
}

; Function Attrs: mustprogress nounwind uwtable
define linkonce_odr hidden void @_ZNSt12_Vector_baseIN7dropbox6oxygen2nnISt10shared_ptrIN5osgeo4proj9operation14ParameterValueEEEESaIS9_EEC2Ev(ptr noundef nonnull align 8 dereferenceable(24) %0) unnamed_addr #2 comdat align 2 {
  %2 = alloca ptr, align 8
  store ptr %0, ptr %2, align 8, !tbaa !367
  %3 = load ptr, ptr %2, align 8
  %4 = getelementptr inbounds nuw %"struct.std::_Vector_base.140", ptr %3, i32 0, i32 0
  call void @_ZNSt12_Vector_baseIN7dropbox6oxygen2nnISt10shared_ptrIN5osgeo4proj9operation14ParameterValueEEEESaIS9_EE12_Vector_implC2Ev(ptr noundef nonnull align 8 dereferenceable(24) %4) #24
  ret void
}

; Function Attrs: mustprogress nounwind uwtable
define linkonce_odr hidden void @_ZNSt12_Vector_baseIN7dropbox6oxygen2nnISt10shared_ptrIN5osgeo4proj9operation18OperationParameterEEEESaIS9_EEC2Ev(ptr noundef nonnull align 8 dereferenceable(24) %0) unnamed_addr #2 comdat align 2 {
  %2 = alloca ptr, align 8
  store ptr %0, ptr %2, align 8, !tbaa !344
  %3 = load ptr, ptr %2, align 8
  %4 = getelementptr inbounds nuw %"struct.std::_Vector_base.135", ptr %3, i32 0, i32 0
  call void @_ZNSt12_Vector_baseIN7dropbox6oxygen2nnISt10shared_ptrIN5osgeo4proj9operation18OperationParameterEEEESaIS9_EE12_Vector_implC2Ev(ptr noundef nonnull align 8 dereferenceable(24) %4) #24
  ret void
}

; Function Attrs: mustprogress nounwind uwtable
define linkonce_odr hidden void @_ZNSt6vectorIN7dropbox6oxygen2nnISt10shared_ptrIN5osgeo4proj9operation14ParameterValueEEEESaIS9_EEC2Ev(ptr noundef nonnull align 8 dereferenceable(24) %0) unnamed_addr #2 comdat align 2 {
  %2 = alloca ptr, align 8
  store ptr %0, ptr %2, align 8, !tbaa !74
  %3 = load ptr, ptr %2, align 8
  call void @_ZNSt12_Vector_baseIN7dropbox6oxygen2nnISt10shared_ptrIN5osgeo4proj9operation14ParameterValueEEEESaIS9_EEC2Ev(ptr noundef nonnull align 8 dereferenceable(24) %3) #24
  ret void
}

; Function Attrs: mustprogress nounwind uwtable
define linkonce_odr hidden void @_ZNSt6vectorIN7dropbox6oxygen2nnISt10shared_ptrIN5osgeo4proj9operation18OperationParameterEEEESaIS9_EEC2Ev(ptr noundef nonnull align 8 dereferenceable(24) %0) unnamed_addr #2 comdat align 2 {
  %2 = alloca ptr, align 8
  store ptr %0, ptr %2, align 8, !tbaa !72
  %3 = load ptr, ptr %2, align 8
  call void @_ZNSt12_Vector_baseIN7dropbox6oxygen2nnISt10shared_ptrIN5osgeo4proj9operation18OperationParameterEEEESaIS9_EEC2Ev(ptr noundef nonnull align 8 dereferenceable(24) %3) #24
  ret void
}

; Function Attrs: mustprogress nounwind uwtable
define linkonce_odr hidden void @_ZN5osgeo4proj9operation14VectorOfValuesC2Ev(ptr noundef nonnull align 8 dereferenceable(24) %0) unnamed_addr #2 comdat align 2 {
  %2 = alloca ptr, align 8
  store ptr %0, ptr %2, align 8, !tbaa !128
  %3 = load ptr, ptr %2, align 8
  %4 = getelementptr inbounds i8, ptr %3, i64 0
  call void @llvm.memset.p0.i64(ptr align 8 %4, i8 0, i64 24, i1 false)
  call void @_ZNSt6vectorIN7dropbox6oxygen2nnISt10shared_ptrIN5osgeo4proj9operation14ParameterValueEEEESaIS9_EEC2Ev(ptr noundef nonnull align 8 dereferenceable(24) %3) #24
  ret void
}

; Function Attrs: mustprogress nounwind uwtable
define linkonce_odr hidden void @_ZN5osgeo4proj9operation18VectorOfParametersC2Ev(ptr noundef nonnull align 8 dereferenceable(24) %0) unnamed_addr #2 comdat align 2 {
  %2 = alloca ptr, align 8
  store ptr %0, ptr %2, align 8, !tbaa !125
  %3 = load ptr, ptr %2, align 8
  %4 = getelementptr inbounds i8, ptr %3, i64 0
  call void @llvm.memset.p0.i64(ptr align 8 %4, i8 0, i64 24, i1 false)
  call void @_ZNSt6vectorIN7dropbox6oxygen2nnISt10shared_ptrIN5osgeo4proj9operation18OperationParameterEEEESaIS9_EEC2Ev(ptr noundef nonnull align 8 dereferenceable(24) %3) #24
  ret void
}

; Function Attrs: mustprogress uwtable
define void @_ZN5osgeo4proj9operation10Conversion24createChangeVerticalUnitERKNS0_4util11PropertyMapE(ptr dead_on_unwind noalias writable sret(%"class.dropbox::oxygen::nn.42") align 8 %0, ptr noundef nonnull align 8 dereferenceable(8) %1) #0 align 2 personality ptr @__gxx_personality_v0 {
  %3 = alloca ptr, align 8
  %4 = alloca ptr, align 8
  %5 = alloca %"class.osgeo::proj::util::PropertyMap", align 8
  %6 = alloca %"struct.osgeo::proj::operation::VectorOfParameters", align 8
  %7 = alloca ptr, align 8
  %8 = alloca i32, align 4
  %9 = alloca %"struct.osgeo::proj::operation::VectorOfValues", align 8
  store ptr %0, ptr %3, align 8
  store ptr %1, ptr %4, align 8, !tbaa !57
  %10 = load ptr, ptr %4, align 8, !tbaa !57
  call void @llvm.lifetime.start.p0(i64 8, ptr %5) #24
  call void @_ZN5osgeo4proj9operation27createMethodMapNameEPSGCodeEi(ptr dead_on_unwind writable sret(%"class.osgeo::proj::util::PropertyMap") align 8 %5, i32 noundef 1104)
  call void @llvm.lifetime.start.p0(i64 24, ptr %6) #24
  invoke void @_ZN5osgeo4proj9operation18VectorOfParametersC2Ev(ptr noundef nonnull align 8 dereferenceable(24) %6)
          to label %11 unwind label %14

11:                                               ; preds = %2
  call void @llvm.lifetime.start.p0(i64 24, ptr %9) #24
  invoke void @_ZN5osgeo4proj9operation14VectorOfValuesC2Ev(ptr noundef nonnull align 8 dereferenceable(24) %9)
          to label %12 unwind label %18

12:                                               ; preds = %11
  invoke void @_ZN5osgeo4proj9operation10Conversion6createERKNS0_4util11PropertyMapES6_RKSt6vectorIN7dropbox6oxygen2nnISt10shared_ptrINS1_18OperationParameterEEEESaISE_EERKS7_INSA_ISB_INS1_14ParameterValueEEEESaISL_EE(ptr dead_on_unwind writable sret(%"class.dropbox::oxygen::nn.42") align 8 %0, ptr noundef nonnull align 8 dereferenceable(8) %10, ptr noundef nonnull align 8 dereferenceable(8) %5, ptr noundef nonnull align 8 dereferenceable(24) %6, ptr noundef nonnull align 8 dereferenceable(24) %9)
          to label %13 unwind label %22

13:                                               ; preds = %12
  call void @_ZN5osgeo4proj9operation14VectorOfValuesD1Ev(ptr noundef nonnull align 8 dereferenceable(24) %9) #24
  call void @llvm.lifetime.end.p0(i64 24, ptr %9) #24
  call void @_ZN5osgeo4proj9operation18VectorOfParametersD1Ev(ptr noundef nonnull align 8 dereferenceable(24) %6) #24
  call void @llvm.lifetime.end.p0(i64 24, ptr %6) #24
  call void @_ZN5osgeo4proj4util11PropertyMapD1Ev(ptr noundef nonnull align 8 dereferenceable(8) %5) #24
  call void @llvm.lifetime.end.p0(i64 8, ptr %5) #24
  ret void

14:                                               ; preds = %2
  %15 = landingpad { ptr, i32 }
          cleanup
  %16 = extractvalue { ptr, i32 } %15, 0
  store ptr %16, ptr %7, align 8
  %17 = extractvalue { ptr, i32 } %15, 1
  store i32 %17, ptr %8, align 4
  br label %27

18:                                               ; preds = %11
  %19 = landingpad { ptr, i32 }
          cleanup
  %20 = extractvalue { ptr, i32 } %19, 0
  store ptr %20, ptr %7, align 8
  %21 = extractvalue { ptr, i32 } %19, 1
  store i32 %21, ptr %8, align 4
  br label %26

22:                                               ; preds = %12
  %23 = landingpad { ptr, i32 }
          cleanup
  %24 = extractvalue { ptr, i32 } %23, 0
  store ptr %24, ptr %7, align 8
  %25 = extractvalue { ptr, i32 } %23, 1
  store i32 %25, ptr %8, align 4
  call void @_ZN5osgeo4proj9operation14VectorOfValuesD1Ev(ptr noundef nonnull align 8 dereferenceable(24) %9) #24
  br label %26

26:                                               ; preds = %22, %18
  call void @llvm.lifetime.end.p0(i64 24, ptr %9) #24
  call void @_ZN5osgeo4proj9operation18VectorOfParametersD1Ev(ptr noundef nonnull align 8 dereferenceable(24) %6) #24
  br label %27

27:                                               ; preds = %26, %14
  call void @llvm.lifetime.end.p0(i64 24, ptr %6) #24
  call void @_ZN5osgeo4proj4util11PropertyMapD1Ev(ptr noundef nonnull align 8 dereferenceable(8) %5) #24
  call void @llvm.lifetime.end.p0(i64 8, ptr %5) #24
  br label %28

28:                                               ; preds = %27
  %29 = load ptr, ptr %7, align 8
  %30 = load i32, ptr %8, align 4
  %31 = insertvalue { ptr, i32 } poison, ptr %29, 0
  %32 = insertvalue { ptr, i32 } %31, i32 %30, 1
  resume { ptr, i32 } %32
}