; Function Attrs: mustprogress uwtable
define void @_ZN5osgeo4proj9operation10Conversion24createChangeVerticalUnitERKNS0_4util11PropertyMapE(ptr dead_on_unwind noalias writable sret(%"class.dropbox::oxygen::nn.42") align 8 %0, ptr noundef nonnull align 8 dereferenceable(8) %1) local_unnamed_addr #0 align 2 personality ptr @__gxx_personality_v0 {
  %3 = alloca %"class.osgeo::proj::util::PropertyMap", align 8
  %4 = alloca %"struct.osgeo::proj::operation::VectorOfParameters", align 8
  %5 = alloca %"struct.osgeo::proj::operation::VectorOfValues", align 8
  call void @llvm.lifetime.start.p0(i64 8, ptr nonnull %3) #32
  call void @_ZN5osgeo4proj9operation27createMethodMapNameEPSGCodeEi(ptr dead_on_unwind nonnull writable sret(%"class.osgeo::proj::util::PropertyMap") align 8 %3, i32 noundef 1104)
  call void @llvm.lifetime.start.p0(i64 24, ptr nonnull %4) #32
  call void @llvm.memset.p0.i64(ptr noundef nonnull align 8 dereferenceable(24) %4, i8 0, i64 24, i1 false)
  call void @llvm.lifetime.start.p0(i64 24, ptr nonnull %5) #32
  call void @llvm.memset.p0.i64(ptr noundef nonnull align 8 dereferenceable(24) %5, i8 0, i64 24, i1 false)
  invoke void @_ZN5osgeo4proj9operation10Conversion6createERKNS0_4util11PropertyMapES6_RKSt6vectorIN7dropbox6oxygen2nnISt10shared_ptrINS1_18OperationParameterEEEESaISE_EERKS7_INSA_ISB_INS1_14ParameterValueEEEESaISL_EE(ptr dead_on_unwind writable sret(%"class.dropbox::oxygen::nn.42") align 8 %0, ptr noundef nonnull align 8 dereferenceable(8) %1, ptr noundef nonnull align 8 dereferenceable(8) %3, ptr noundef nonnull align 8 dereferenceable(24) %4, ptr noundef nonnull align 8 dereferenceable(24) %5)
          to label %6 unwind label %7

6:                                                ; preds = %2
  call void @_ZN5osgeo4proj9operation14VectorOfValuesD1Ev(ptr noundef nonnull align 8 dereferenceable(24) %5) #32
  call void @llvm.lifetime.end.p0(i64 24, ptr nonnull %5) #32
  call void @_ZN5osgeo4proj9operation18VectorOfParametersD1Ev(ptr noundef nonnull align 8 dereferenceable(24) %4) #32
  call void @llvm.lifetime.end.p0(i64 24, ptr nonnull %4) #32
  call void @_ZN5osgeo4proj4util11PropertyMapD1Ev(ptr noundef nonnull align 8 dereferenceable(8) %3) #32
  call void @llvm.lifetime.end.p0(i64 8, ptr nonnull %3) #32
  ret void

7:                                                ; preds = %2
  %8 = landingpad { ptr, i32 }
          cleanup
  call void @_ZN5osgeo4proj9operation14VectorOfValuesD1Ev(ptr noundef nonnull align 8 dereferenceable(24) %5) #32
  call void @llvm.lifetime.end.p0(i64 24, ptr nonnull %5) #32
  call void @_ZN5osgeo4proj9operation18VectorOfParametersD1Ev(ptr noundef nonnull align 8 dereferenceable(24) %4) #32
  call void @llvm.lifetime.end.p0(i64 24, ptr nonnull %4) #32
  call void @_ZN5osgeo4proj4util11PropertyMapD1Ev(ptr noundef nonnull align 8 dereferenceable(8) %3) #32
  call void @llvm.lifetime.end.p0(i64 8, ptr nonnull %3) #32
  resume { ptr, i32 } %8
}